target datalayout = "e-m:e-p270:32:32-p271:32:32-p272:64:64-i64:64-i128:128-f80:128-n8:16:32:64-S128"
target triple = "x86_64-pc-linux-gnu"

%struct.CharSet = type { i32, i32, ptr, i32, ptr }
%struct.Range = type { i8, i8 }

; Function Attrs: nounwind uwtable
define internal ptr @BuildCharSet(ptr noundef %0, ptr noundef %1) #0 {
  %3 = alloca ptr, align 8
  %4 = alloca ptr, align 8
  %5 = alloca ptr, align 8
  %6 = alloca i8, align 1
  %7 = alloca i32, align 4
  %8 = alloca ptr, align 8
  store ptr %0, ptr %3, align 8
  store ptr %1, ptr %4, align 8
  %9 = load ptr, ptr %3, align 8
  call void @llvm.memset.p0.i64(ptr align 8 %9, i8 0, i64 32, i1 false)
  %10 = load ptr, ptr %4, align 8
  store ptr %10, ptr %5, align 8
  %11 = load ptr, ptr %5, align 8
  %12 = load i8, ptr %11, align 1
  %13 = sext i8 %12 to i32
  %14 = icmp eq i32 %13, 94
  br i1 %14, label %15, label %20

15:                                               ; preds = %2
  %16 = load ptr, ptr %3, align 8
  %17 = getelementptr inbounds %struct.CharSet, ptr %16, i32 0, i32 0
  store i32 1, ptr %17, align 8
  %18 = load ptr, ptr %4, align 8
  %19 = getelementptr inbounds i8, ptr %18, i32 1
  store ptr %19, ptr %4, align 8
  store ptr %19, ptr %5, align 8
  br label %20

20:                                               ; preds = %15, %2
  %21 = load ptr, ptr %4, align 8
  %22 = getelementptr inbounds i8, ptr %21, i64 1
  store ptr %22, ptr %8, align 8
  %23 = load ptr, ptr %5, align 8
  %24 = load i8, ptr %23, align 1
  %25 = sext i8 %24 to i32
  %26 = icmp eq i32 %25, 93
  br i1 %26, label %27, label %30

27:                                               ; preds = %20
  %28 = load ptr, ptr %8, align 8
  %29 = getelementptr inbounds i8, ptr %28, i32 1
  store ptr %29, ptr %8, align 8
  store ptr %28, ptr %5, align 8
  br label %30

30:                                               ; preds = %27, %20
  store i32 0, ptr %7, align 4
  br label %31

31:                                               ; preds = %44, %30
  %32 = load ptr, ptr %5, align 8
  %33 = load i8, ptr %32, align 1
  %34 = sext i8 %33 to i32
  %35 = icmp ne i32 %34, 93
  br i1 %35, label %36, label %47

36:                                               ; preds = %31
  %37 = load ptr, ptr %5, align 8
  %38 = load i8, ptr %37, align 1
  %39 = sext i8 %38 to i32
  %40 = icmp eq i32 %39, 45
  br i1 %40, label %41, label %44

41:                                               ; preds = %36
  %42 = load i32, ptr %7, align 4
  %43 = add nsw i32 %42, 1
  store i32 %43, ptr %7, align 4
  br label %44

44:                                               ; preds = %41, %36
  %45 = load ptr, ptr %8, align 8
  %46 = getelementptr inbounds i8, ptr %45, i32 1
  store ptr %46, ptr %8, align 8
  store ptr %45, ptr %5, align 8
  br label %31

47:                                               ; preds = %31
  %48 = load ptr, ptr %8, align 8
  %49 = load ptr, ptr %4, align 8
  %50 = ptrtoint ptr %48 to i64
  %51 = ptrtoint ptr %49 to i64
  %52 = sub i64 %50, %51
  %53 = sub nsw i64 %52, 1
  %54 = call noalias ptr @_safe_emalloc(i64 noundef 1, i64 noundef %53, i64 noundef 0)
  %55 = load ptr, ptr %3, align 8
  %56 = getelementptr inbounds %struct.CharSet, ptr %55, i32 0, i32 2
  store ptr %54, ptr %56, align 8
  %57 = load i32, ptr %7, align 4
  %58 = icmp sgt i32 %57, 0
  br i1 %58, label %59, label %65

59:                                               ; preds = %47
  %60 = load i32, ptr %7, align 4
  %61 = sext i32 %60 to i64
  %62 = call noalias ptr @_safe_emalloc(i64 noundef 2, i64 noundef %61, i64 noundef 0)
  %63 = load ptr, ptr %3, align 8
  %64 = getelementptr inbounds %struct.CharSet, ptr %63, i32 0, i32 4
  store ptr %62, ptr %64, align 8
  br label %68

65:                                               ; preds = %47
  %66 = load ptr, ptr %3, align 8
  %67 = getelementptr inbounds %struct.CharSet, ptr %66, i32 0, i32 4
  store ptr null, ptr %67, align 8
  br label %68

68:                                               ; preds = %65, %59
  %69 = load ptr, ptr %3, align 8
  %70 = getelementptr inbounds %struct.CharSet, ptr %69, i32 0, i32 3
  store i32 0, ptr %70, align 8
  %71 = load ptr, ptr %3, align 8
  %72 = getelementptr inbounds %struct.CharSet, ptr %71, i32 0, i32 1
  store i32 0, ptr %72, align 4
  %73 = load ptr, ptr %4, align 8
  %74 = getelementptr inbounds i8, ptr %73, i32 1
  store ptr %74, ptr %4, align 8
  store ptr %73, ptr %5, align 8
  %75 = load ptr, ptr %5, align 8
  %76 = load i8, ptr %75, align 1
  store i8 %76, ptr %6, align 1
  %77 = load ptr, ptr %5, align 8
  %78 = load i8, ptr %77, align 1
  %79 = sext i8 %78 to i32
  %80 = icmp eq i32 %79, 93
  br i1 %80, label %86, label %81

81:                                               ; preds = %68
  %82 = load ptr, ptr %5, align 8
  %83 = load i8, ptr %82, align 1
  %84 = sext i8 %83 to i32
  %85 = icmp eq i32 %84, 45
  br i1 %85, label %86, label %100

86:                                               ; preds = %81, %68
  %87 = load ptr, ptr %5, align 8
  %88 = load i8, ptr %87, align 1
  %89 = load ptr, ptr %3, align 8
  %90 = getelementptr inbounds %struct.CharSet, ptr %89, i32 0, i32 2
  %91 = load ptr, ptr %90, align 8
  %92 = load ptr, ptr %3, align 8
  %93 = getelementptr inbounds %struct.CharSet, ptr %92, i32 0, i32 1
  %94 = load i32, ptr %93, align 4
  %95 = add nsw i32 %94, 1
  store i32 %95, ptr %93, align 4
  %96 = sext i32 %94 to i64
  %97 = getelementptr inbounds i8, ptr %91, i64 %96
  store i8 %88, ptr %97, align 1
  %98 = load ptr, ptr %4, align 8
  %99 = getelementptr inbounds i8, ptr %98, i32 1
  store ptr %99, ptr %4, align 8
  store ptr %98, ptr %5, align 8
  br label %100

100:                                              ; preds = %86, %81
  br label %101

101:                                              ; preds = %218, %100
  %102 = load ptr, ptr %5, align 8
  %103 = load i8, ptr %102, align 1
  %104 = sext i8 %103 to i32
  %105 = icmp ne i32 %104, 93
  br i1 %105, label %106, label %221

106:                                              ; preds = %101
  %107 = load ptr, ptr %4, align 8
  %108 = load i8, ptr %107, align 1
  %109 = sext i8 %108 to i32
  %110 = icmp eq i32 %109, 45
  br i1 %110, label %111, label %114

111:                                              ; preds = %106
  %112 = load ptr, ptr %5, align 8
  %113 = load i8, ptr %112, align 1
  store i8 %113, ptr %6, align 1
  br label %218

114:                                              ; preds = %106
  %115 = load ptr, ptr %5, align 8
  %116 = load i8, ptr %115, align 1
  %117 = sext i8 %116 to i32
  %118 = icmp eq i32 %117, 45
  br i1 %118, label %119, label %205

119:                                              ; preds = %114
  %120 = load ptr, ptr %4, align 8
  %121 = load i8, ptr %120, align 1
  %122 = sext i8 %121 to i32
  %123 = icmp eq i32 %122, 93
  br i1 %123, label %124, label %146

124:                                              ; preds = %119
  %125 = load i8, ptr %6, align 1
  %126 = load ptr, ptr %3, align 8
  %127 = getelementptr inbounds %struct.CharSet, ptr %126, i32 0, i32 2
  %128 = load ptr, ptr %127, align 8
  %129 = load ptr, ptr %3, align 8
  %130 = getelementptr inbounds %struct.CharSet, ptr %129, i32 0, i32 1
  %131 = load i32, ptr %130, align 4
  %132 = add nsw i32 %131, 1
  store i32 %132, ptr %130, align 4
  %133 = sext i32 %131 to i64
  %134 = getelementptr inbounds i8, ptr %128, i64 %133
  store i8 %125, ptr %134, align 1
  %135 = load ptr, ptr %5, align 8
  %136 = load i8, ptr %135, align 1
  %137 = load ptr, ptr %3, align 8
  %138 = getelementptr inbounds %struct.CharSet, ptr %137, i32 0, i32 2
  %139 = load ptr, ptr %138, align 8
  %140 = load ptr, ptr %3, align 8
  %141 = getelementptr inbounds %struct.CharSet, ptr %140, i32 0, i32 1
  %142 = load i32, ptr %141, align 4
  %143 = add nsw i32 %142, 1
  store i32 %143, ptr %141, align 4
  %144 = sext i32 %142 to i64
  %145 = getelementptr inbounds i8, ptr %139, i64 %144
  store i8 %136, ptr %145, align 1
  br label %204

146:                                              ; preds = %119
  %147 = load ptr, ptr %4, align 8
  %148 = getelementptr inbounds i8, ptr %147, i32 1
  store ptr %148, ptr %4, align 8
  store ptr %147, ptr %5, align 8
  %149 = load i8, ptr %6, align 1
  %150 = sext i8 %149 to i32
  %151 = load ptr, ptr %5, align 8
  %152 = load i8, ptr %151, align 1
  %153 = sext i8 %152 to i32
  %154 = icmp slt i32 %150, %153
  br i1 %154, label %155, label %177

155:                                              ; preds = %146
  %156 = load i8, ptr %6, align 1
  %157 = load ptr, ptr %3, align 8
  %158 = getelementptr inbounds %struct.CharSet, ptr %157, i32 0, i32 4
  %159 = load ptr, ptr %158, align 8
  %160 = load ptr, ptr %3, align 8
  %161 = getelementptr inbounds %struct.CharSet, ptr %160, i32 0, i32 3
  %162 = load i32, ptr %161, align 8
  %163 = sext i32 %162 to i64
  %164 = getelementptr inbounds %struct.Range, ptr %159, i64 %163
  %165 = getelementptr inbounds %struct.Range, ptr %164, i32 0, i32 0
  store i8 %156, ptr %165, align 1
  %166 = load ptr, ptr %5, align 8
  %167 = load i8, ptr %166, align 1
  %168 = load ptr, ptr %3, align 8
  %169 = getelementptr inbounds %struct.CharSet, ptr %168, i32 0, i32 4
  %170 = load ptr, ptr %169, align 8
  %171 = load ptr, ptr %3, align 8
  %172 = getelementptr inbounds %struct.CharSet, ptr %171, i32 0, i32 3
  %173 = load i32, ptr %172, align 8
  %174 = sext i32 %173 to i64
  %175 = getelementptr inbounds %struct.Range, ptr %170, i64 %174
  %176 = getelementptr inbounds %struct.Range, ptr %175, i32 0, i32 1
  store i8 %167, ptr %176, align 1
  br label %199

177:                                              ; preds = %146
  %178 = load ptr, ptr %5, align 8
  %179 = load i8, ptr %178, align 1
  %180 = load ptr, ptr %3, align 8
  %181 = getelementptr inbounds %struct.CharSet, ptr %180, i32 0, i32 4
  %182 = load ptr, ptr %181, align 8
  %183 = load ptr, ptr %3, align 8
  %184 = getelementptr inbounds %struct.CharSet, ptr %183, i32 0, i32 3
  %185 = load i32, ptr %184, align 8
  %186 = sext i32 %185 to i64
  %187 = getelementptr inbounds %struct.Range, ptr %182, i64 %186
  %188 = getelementptr inbounds %struct.Range, ptr %187, i32 0, i32 0
  store i8 %179, ptr %188, align 1
  %189 = load i8, ptr %6, align 1
  %190 = load ptr, ptr %3, align 8
  %191 = getelementptr inbounds %struct.CharSet, ptr %190, i32 0, i32 4
  %192 = load ptr, ptr %191, align 8
  %193 = load ptr, ptr %3, align 8
  %194 = getelementptr inbounds %struct.CharSet, ptr %193, i32 0, i32 3
  %195 = load i32, ptr %194, align 8
  %196 = sext i32 %195 to i64
  %197 = getelementptr inbounds %struct.Range, ptr %192, i64 %196
  %198 = getelementptr inbounds %struct.Range, ptr %197, i32 0, i32 1
  store i8 %189, ptr %198, align 1
  br label %199

199:                                              ; preds = %177, %155
  %200 = load ptr, ptr %3, align 8
  %201 = getelementptr inbounds %struct.CharSet, ptr %200, i32 0, i32 3
  %202 = load i32, ptr %201, align 8
  %203 = add nsw i32 %202, 1
  store i32 %203, ptr %201, align 8
  br label %204

204:                                              ; preds = %199, %124
  br label %217

205:                                              ; preds = %114
  %206 = load ptr, ptr %5, align 8
  %207 = load i8, ptr %206, align 1
  %208 = load ptr, ptr %3, align 8
  %209 = getelementptr inbounds %struct.CharSet, ptr %208, i32 0, i32 2
  %210 = load ptr, ptr %209, align 8
  %211 = load ptr, ptr %3, align 8
  %212 = getelementptr inbounds %struct.CharSet, ptr %211, i32 0, i32 1
  %213 = load i32, ptr %212, align 4
  %214 = add nsw i32 %213, 1
  store i32 %214, ptr %212, align 4
  %215 = sext i32 %213 to i64
  %216 = getelementptr inbounds i8, ptr %210, i64 %215
  store i8 %207, ptr %216, align 1
  br label %217

217:                                              ; preds = %205, %204
  br label %218

218:                                              ; preds = %217, %111
  %219 = load ptr, ptr %4, align 8
  %220 = getelementptr inbounds i8, ptr %219, i32 1
  store ptr %220, ptr %4, align 8
  store ptr %219, ptr %5, align 8
  br label %101

221:                                              ; preds = %101
  %222 = load ptr, ptr %4, align 8
  ret ptr %222
}