; Function Attrs: nounwind uwtable
define internal fastcc nonnull ptr @BuildCharSet(ptr nocapture noundef %0, ptr noundef %1) unnamed_addr #0 {
  tail call void @llvm.memset.p0.i64(ptr noundef nonnull align 8 dereferenceable(32) %0, i8 0, i64 32, i1 false)
  %3 = load i8, ptr %1, align 1
  %4 = icmp eq i8 %3, 94
  br i1 %4, label %5, label %7

5:                                                ; preds = %2
  store i32 1, ptr %0, align 8
  %6 = getelementptr inbounds i8, ptr %1, i64 1
  %.pre = load i8, ptr %6, align 1
  br label %7

7:                                                ; preds = %5, %2
  %8 = phi i8 [ %.pre, %5 ], [ %3, %2 ]
  %.064 = phi ptr [ %6, %5 ], [ %1, %2 ]
  %9 = getelementptr inbounds i8, ptr %.064, i64 1
  %10 = icmp eq i8 %8, 93
  %11 = getelementptr inbounds i8, ptr %.064, i64 2
  %spec.select = select i1 %10, ptr %9, ptr %.064
  %spec.select75 = select i1 %10, ptr %11, ptr %9
  br label %12

12:                                               ; preds = %16, %7
  %.2 = phi ptr [ %spec.select, %7 ], [ %.1, %16 ]
  %.060 = phi i32 [ 0, %7 ], [ %.161, %16 ]
  %.1 = phi ptr [ %spec.select75, %7 ], [ %17, %16 ]
  %13 = load i8, ptr %.2, align 1
  switch i8 %13, label %16 [
    i8 93, label %18
    i8 45, label %14
  ]

14:                                               ; preds = %12
  %15 = add nsw i32 %.060, 1
  br label %16

16:                                               ; preds = %12, %14
  %.161 = phi i32 [ %15, %14 ], [ %.060, %12 ]
  %17 = getelementptr inbounds i8, ptr %.1, i64 1
  br label %12

18:                                               ; preds = %12
  %19 = ptrtoint ptr %.1 to i64
  %20 = ptrtoint ptr %.064 to i64
  %21 = xor i64 %20, -1
  %22 = add i64 %19, %21
  %23 = tail call noalias ptr @_safe_emalloc(i64 noundef 1, i64 noundef %22, i64 noundef 0) #10
  %24 = getelementptr inbounds i8, ptr %0, i64 8
  store ptr %23, ptr %24, align 8
  %25 = icmp sgt i32 %.060, 0
  br i1 %25, label %26, label %29

26:                                               ; preds = %18
  %27 = zext nneg i32 %.060 to i64
  %28 = tail call noalias ptr @_safe_emalloc(i64 noundef 2, i64 noundef %27, i64 noundef 0) #10
  br label %29

29:                                               ; preds = %18, %26
  %.sink = phi ptr [ %28, %26 ], [ null, %18 ]
  %30 = getelementptr inbounds i8, ptr %0, i64 24
  store ptr %.sink, ptr %30, align 8
  %31 = getelementptr inbounds i8, ptr %0, i64 16
  store i32 0, ptr %31, align 8
  %32 = getelementptr inbounds i8, ptr %0, i64 4
  store i32 0, ptr %32, align 4
  %33 = load i8, ptr %.064, align 1
  switch i8 %33, label %36 [
    i8 93, label %34
    i8 45, label %34
  ]

34:                                               ; preds = %29, %29
  %35 = load ptr, ptr %24, align 8
  store i32 1, ptr %32, align 4
  store i8 %33, ptr %35, align 1
  %.pre80 = load i8, ptr %9, align 1
  br label %36

36:                                               ; preds = %29, %34
  %37 = phi i8 [ %.pre80, %34 ], [ %33, %29 ]
  %.167 = phi ptr [ %11, %34 ], [ %9, %29 ]
  %.3 = phi ptr [ %9, %34 ], [ %.064, %29 ]
  %.not7476 = icmp eq i8 %37, 93
  br i1 %.not7476, label %._crit_edge, label %.lr.ph

.lr.ph:                                           ; preds = %36, %80
  %38 = phi i8 [ %81, %80 ], [ %37, %36 ]
  %.06279 = phi i8 [ %.163, %80 ], [ %33, %36 ]
  %.478 = phi ptr [ %.369, %80 ], [ %.3, %36 ]
  %.26877 = phi ptr [ %82, %80 ], [ %.167, %36 ]
  %39 = load i8, ptr %.26877, align 1
  %40 = icmp eq i8 %39, 45
  br i1 %40, label %80, label %41

41:                                               ; preds = %.lr.ph
  %42 = icmp eq i8 %38, 45
  br i1 %42, label %43, label %74

43:                                               ; preds = %41
  %44 = icmp eq i8 %39, 93
  br i1 %44, label %45, label %57

45:                                               ; preds = %43
  %46 = load ptr, ptr %24, align 8
  %47 = load i32, ptr %32, align 4
  %48 = add nsw i32 %47, 1
  store i32 %48, ptr %32, align 4
  %49 = sext i32 %47 to i64
  %50 = getelementptr inbounds i8, ptr %46, i64 %49
  store i8 %.06279, ptr %50, align 1
  %51 = load i8, ptr %.478, align 1
  %52 = load ptr, ptr %24, align 8
  %53 = load i32, ptr %32, align 4
  %54 = add nsw i32 %53, 1
  store i32 %54, ptr %32, align 4
  %55 = sext i32 %53 to i64
  %56 = getelementptr inbounds i8, ptr %52, i64 %55
  store i8 %51, ptr %56, align 1
  br label %thread-pre-split

57:                                               ; preds = %43
  %58 = getelementptr inbounds i8, ptr %.26877, i64 1
  %59 = icmp slt i8 %.06279, %39
  %60 = load ptr, ptr %30, align 8
  %61 = load i32, ptr %31, align 8
  %62 = sext i32 %61 to i64
  %63 = getelementptr inbounds %struct.Range, ptr %60, i64 %62
  br i1 %59, label %64, label %66

64:                                               ; preds = %57
  store i8 %.06279, ptr %63, align 1
  %65 = load i8, ptr %.26877, align 1
  br label %67

66:                                               ; preds = %57
  store i8 %39, ptr %63, align 1
  br label %67

67:                                               ; preds = %66, %64
  %.06279.sink = phi i8 [ %.06279, %66 ], [ %65, %64 ]
  %68 = load ptr, ptr %30, align 8
  %69 = load i32, ptr %31, align 8
  %70 = sext i32 %69 to i64
  %71 = getelementptr inbounds %struct.Range, ptr %68, i64 %70, i32 1
  store i8 %.06279.sink, ptr %71, align 1
  %72 = load i32, ptr %31, align 8
  %73 = add nsw i32 %72, 1
  store i32 %73, ptr %31, align 8
  br label %thread-pre-split

74:                                               ; preds = %41
  %75 = load ptr, ptr %24, align 8
  %76 = load i32, ptr %32, align 4
  %77 = add nsw i32 %76, 1
  store i32 %77, ptr %32, align 4
  %78 = sext i32 %76 to i64
  %79 = getelementptr inbounds i8, ptr %75, i64 %78
  store i8 %38, ptr %79, align 1
  br label %thread-pre-split

thread-pre-split:                                 ; preds = %45, %67, %74
  %.369.ph = phi ptr [ %.26877, %74 ], [ %58, %67 ], [ %.26877, %45 ]
  %.pr = load i8, ptr %.369.ph, align 1
  br label %80

80:                                               ; preds = %thread-pre-split, %.lr.ph
  %81 = phi i8 [ %.pr, %thread-pre-split ], [ 45, %.lr.ph ]
  %.369 = phi ptr [ %.369.ph, %thread-pre-split ], [ %.26877, %.lr.ph ]
  %.163 = phi i8 [ %.06279, %thread-pre-split ], [ %38, %.lr.ph ]
  %82 = getelementptr inbounds i8, ptr %.369, i64 1
  %.not74 = icmp eq i8 %81, 93
  br i1 %.not74, label %._crit_edge, label %.lr.ph

._crit_edge:                                      ; preds = %80, %36
  %.268.lcssa = phi ptr [ %.167, %36 ], [ %82, %80 ]
  ret ptr %.268.lcssa
}